SF:/Users/franci/src/personal/rusty-commit-lister/src/adapters/arboard_clipboard.rs
FN:18,_RNvMNtNtCsdnaWJaLY0Bt_19rusty_commit_lister8adapters17arboard_clipboardNtB2_23ArboardClipboardAdapter3new
FN:30,_RNvXs0_NtNtCsdnaWJaLY0Bt_19rusty_commit_lister8adapters17arboard_clipboardNtB5_23ArboardClipboardAdapterNtNtNtB9_5ports11config_port5Probe5probe
FN:42,_RNvXs1_NtNtCsdnaWJaLY0Bt_19rusty_commit_lister8adapters17arboard_clipboardNtB5_23ArboardClipboardAdapterNtNtNtB9_5ports14clipboard_port13ClipboardPort5write
FN:24,_RNvXs_NtNtCsdnaWJaLY0Bt_19rusty_commit_lister8adapters17arboard_clipboardNtB4_23ArboardClipboardAdapterNtNtCs6bbfkRe74Oh_4core7default7Default7default
FN:32,_RNCNvXs0_NtNtCsdnaWJaLY0Bt_19rusty_commit_lister8adapters17arboard_clipboardNtB7_23ArboardClipboardAdapterNtNtNtBb_5ports11config_port5Probe5probe0Bb_
FN:36,_RNCNvXs0_NtNtCsdnaWJaLY0Bt_19rusty_commit_lister8adapters17arboard_clipboardNtB7_23ArboardClipboardAdapterNtNtNtBb_5ports11config_port5Probe5probes0_0Bb_
FN:34,_RNCNvXs0_NtNtCsdnaWJaLY0Bt_19rusty_commit_lister8adapters17arboard_clipboardNtB7_23ArboardClipboardAdapterNtNtNtBb_5ports11config_port5Probe5probes_0Bb_
FN:44,_RNCNvXs1_NtNtCsdnaWJaLY0Bt_19rusty_commit_lister8adapters17arboard_clipboardNtB7_23ArboardClipboardAdapterNtNtNtBb_5ports14clipboard_port13ClipboardPort5write0Bb_
FN:46,_RNCNvXs1_NtNtCsdnaWJaLY0Bt_19rusty_commit_lister8adapters17arboard_clipboardNtB7_23ArboardClipboardAdapterNtNtNtBb_5ports14clipboard_port13ClipboardPort5writes_0Bb_
FN:32,_RNCNvXs0_NtNtCsffdOlLd9PUE_19rusty_commit_lister8adapters17arboard_clipboardNtB7_23ArboardClipboardAdapterNtNtNtBb_5ports11config_port5Probe5probe0Bb_
FN:36,_RNCNvXs0_NtNtCsffdOlLd9PUE_19rusty_commit_lister8adapters17arboard_clipboardNtB7_23ArboardClipboardAdapterNtNtNtBb_5ports11config_port5Probe5probes0_0Bb_
FN:34,_RNCNvXs0_NtNtCsffdOlLd9PUE_19rusty_commit_lister8adapters17arboard_clipboardNtB7_23ArboardClipboardAdapterNtNtNtBb_5ports11config_port5Probe5probes_0Bb_
FN:44,_RNCNvXs1_NtNtCsffdOlLd9PUE_19rusty_commit_lister8adapters17arboard_clipboardNtB7_23ArboardClipboardAdapterNtNtNtBb_5ports14clipboard_port13ClipboardPort5write0Bb_
FN:46,_RNCNvXs1_NtNtCsffdOlLd9PUE_19rusty_commit_lister8adapters17arboard_clipboardNtB7_23ArboardClipboardAdapterNtNtNtBb_5ports14clipboard_port13ClipboardPort5writes_0Bb_
FN:18,_RNvMNtNtCsffdOlLd9PUE_19rusty_commit_lister8adapters17arboard_clipboardNtB2_23ArboardClipboardAdapter3new
FN:30,_RNvXs0_NtNtCsffdOlLd9PUE_19rusty_commit_lister8adapters17arboard_clipboardNtB5_23ArboardClipboardAdapterNtNtNtB9_5ports11config_port5Probe5probe
FN:42,_RNvXs1_NtNtCsffdOlLd9PUE_19rusty_commit_lister8adapters17arboard_clipboardNtB5_23ArboardClipboardAdapterNtNtNtB9_5ports14clipboard_port13ClipboardPort5write
FN:24,_RNvXs_NtNtCsffdOlLd9PUE_19rusty_commit_lister8adapters17arboard_clipboardNtB4_23ArboardClipboardAdapterNtNtCs6bbfkRe74Oh_4core7default7Default7default
FNDA:7,_RNvMNtNtCsdnaWJaLY0Bt_19rusty_commit_lister8adapters17arboard_clipboardNtB2_23ArboardClipboardAdapter3new
FNDA:6,_RNvXs0_NtNtCsdnaWJaLY0Bt_19rusty_commit_lister8adapters17arboard_clipboardNtB5_23ArboardClipboardAdapterNtNtNtB9_5ports11config_port5Probe5probe
FNDA:0,_RNvXs1_NtNtCsdnaWJaLY0Bt_19rusty_commit_lister8adapters17arboard_clipboardNtB5_23ArboardClipboardAdapterNtNtNtB9_5ports14clipboard_port13ClipboardPort5write
FNDA:0,_RNvXs_NtNtCsdnaWJaLY0Bt_19rusty_commit_lister8adapters17arboard_clipboardNtB4_23ArboardClipboardAdapterNtNtCs6bbfkRe74Oh_4core7default7Default7default
FNDA:0,_RNCNvXs0_NtNtCsdnaWJaLY0Bt_19rusty_commit_lister8adapters17arboard_clipboardNtB7_23ArboardClipboardAdapterNtNtNtBb_5ports11config_port5Probe5probe0Bb_
FNDA:1,_RNCNvXs0_NtNtCsdnaWJaLY0Bt_19rusty_commit_lister8adapters17arboard_clipboardNtB7_23ArboardClipboardAdapterNtNtNtBb_5ports11config_port5Probe5probes0_0Bb_
FNDA:1,_RNCNvXs0_NtNtCsdnaWJaLY0Bt_19rusty_commit_lister8adapters17arboard_clipboardNtB7_23ArboardClipboardAdapterNtNtNtBb_5ports11config_port5Probe5probes_0Bb_
FNDA:0,_RNCNvXs1_NtNtCsdnaWJaLY0Bt_19rusty_commit_lister8adapters17arboard_clipboardNtB7_23ArboardClipboardAdapterNtNtNtBb_5ports14clipboard_port13ClipboardPort5write0Bb_
FNDA:0,_RNCNvXs1_NtNtCsdnaWJaLY0Bt_19rusty_commit_lister8adapters17arboard_clipboardNtB7_23ArboardClipboardAdapterNtNtNtBb_5ports14clipboard_port13ClipboardPort5writes_0Bb_
FNDA:0,_RNCNvXs0_NtNtCsffdOlLd9PUE_19rusty_commit_lister8adapters17arboard_clipboardNtB7_23ArboardClipboardAdapterNtNtNtBb_5ports11config_port5Probe5probe0Bb_
FNDA:0,_RNCNvXs0_NtNtCsffdOlLd9PUE_19rusty_commit_lister8adapters17arboard_clipboardNtB7_23ArboardClipboardAdapterNtNtNtBb_5ports11config_port5Probe5probes0_0Bb_
FNDA:0,_RNCNvXs0_NtNtCsffdOlLd9PUE_19rusty_commit_lister8adapters17arboard_clipboardNtB7_23ArboardClipboardAdapterNtNtNtBb_5ports11config_port5Probe5probes_0Bb_
FNDA:0,_RNCNvXs1_NtNtCsffdOlLd9PUE_19rusty_commit_lister8adapters17arboard_clipboardNtB7_23ArboardClipboardAdapterNtNtNtBb_5ports14clipboard_port13ClipboardPort5write0Bb_
FNDA:0,_RNCNvXs1_NtNtCsffdOlLd9PUE_19rusty_commit_lister8adapters17arboard_clipboardNtB7_23ArboardClipboardAdapterNtNtNtBb_5ports14clipboard_port13ClipboardPort5writes_0Bb_
FNDA:0,_RNvMNtNtCsffdOlLd9PUE_19rusty_commit_lister8adapters17arboard_clipboardNtB2_23ArboardClipboardAdapter3new
FNDA:0,_RNvXs0_NtNtCsffdOlLd9PUE_19rusty_commit_lister8adapters17arboard_clipboardNtB5_23ArboardClipboardAdapterNtNtNtB9_5ports11config_port5Probe5probe
FNDA:0,_RNvXs1_NtNtCsffdOlLd9PUE_19rusty_commit_lister8adapters17arboard_clipboardNtB5_23ArboardClipboardAdapterNtNtNtB9_5ports14clipboard_port13ClipboardPort5write
FNDA:0,_RNvXs_NtNtCsffdOlLd9PUE_19rusty_commit_lister8adapters17arboard_clipboardNtB4_23ArboardClipboardAdapterNtNtCs6bbfkRe74Oh_4core7default7Default7default
FNF:9
FNH:4
DA:18,7
DA:19,7
DA:20,7
DA:24,0
DA:25,0
DA:26,0
DA:30,6
DA:31,6
DA:32,6
DA:33,6
DA:34,6
DA:35,5
DA:36,5
DA:37,4
DA:38,6
DA:42,0
DA:43,0
DA:44,0
DA:45,0
DA:46,0
DA:47,0
DA:48,0
BRF:0
BRH:0
LF:27
LH:14
end_of_record
SF:/Users/franci/src/personal/rusty-commit-lister/src/adapters/toml_config.rs
FN:64,_RNCNvXs0_NtNtCsdnaWJaLY0Bt_19rusty_commit_lister8adapters11toml_configNtB7_17TomlConfigAdapterNtNtNtBb_5ports11config_port10ConfigPort4load0Bb_
FN:85,_RNCNvXs0_NtNtCsdnaWJaLY0Bt_19rusty_commit_lister8adapters11toml_configNtB7_17TomlConfigAdapterNtNtNtBb_5ports11config_port10ConfigPort4loads0_0Bb_
FN:85,_RNCNvXs0_NtNtCsdnaWJaLY0Bt_19rusty_commit_lister8adapters11toml_configNtB7_17TomlConfigAdapterNtNtNtBb_5ports11config_port10ConfigPort4loads1_0Bb_
FN:71,_RNCNvXs0_NtNtCsdnaWJaLY0Bt_19rusty_commit_lister8adapters11toml_configNtB7_17TomlConfigAdapterNtNtNtBb_5ports11config_port10ConfigPort4loads_0Bb_
FN:48,_RNCNvXs_NtNtCsdnaWJaLY0Bt_19rusty_commit_lister8adapters11toml_configNtB6_17TomlConfigAdapterNtNtNtBa_5ports11config_port5Probe5probe0Ba_
FN:38,_RNvMNtNtCsdnaWJaLY0Bt_19rusty_commit_lister8adapters11toml_configNtB2_17TomlConfigAdapter3new
FN:98,_RNvNtNtCsdnaWJaLY0Bt_19rusty_commit_lister8adapters11toml_config12expand_tilde
FN:59,_RNvXs0_NtNtCsdnaWJaLY0Bt_19rusty_commit_lister8adapters11toml_configNtB5_17TomlConfigAdapterNtNtNtB9_5ports11config_port10ConfigPort4load
FN:46,_RNvXs_NtNtCsdnaWJaLY0Bt_19rusty_commit_lister8adapters11toml_configNtB4_17TomlConfigAdapterNtNtNtB8_5ports11config_port5Probe5probe
FN:64,_RNCNvXs0_NtNtCsffdOlLd9PUE_19rusty_commit_lister8adapters11toml_configNtB7_17TomlConfigAdapterNtNtNtBb_5ports11config_port10ConfigPort4load0Bb_
FN:85,_RNCNvXs0_NtNtCsffdOlLd9PUE_19rusty_commit_lister8adapters11toml_configNtB7_17TomlConfigAdapterNtNtNtBb_5ports11config_port10ConfigPort4loads0_0Bb_
FN:85,_RNCNvXs0_NtNtCsffdOlLd9PUE_19rusty_commit_lister8adapters11toml_configNtB7_17TomlConfigAdapterNtNtNtBb_5ports11config_port10ConfigPort4loads1_0Bb_
FN:71,_RNCNvXs0_NtNtCsffdOlLd9PUE_19rusty_commit_lister8adapters11toml_configNtB7_17TomlConfigAdapterNtNtNtBb_5ports11config_port10ConfigPort4loads_0Bb_
FN:48,_RNCNvXs_NtNtCsffdOlLd9PUE_19rusty_commit_lister8adapters11toml_configNtB6_17TomlConfigAdapterNtNtNtBa_5ports11config_port5Probe5probe0Ba_
FN:38,_RNvMNtNtCsffdOlLd9PUE_19rusty_commit_lister8adapters11toml_configNtB2_17TomlConfigAdapter3new
FN:98,_RNvNtNtCsffdOlLd9PUE_19rusty_commit_lister8adapters11toml_config12expand_tilde
FN:59,_RNvXs0_NtNtCsffdOlLd9PUE_19rusty_commit_lister8adapters11toml_configNtB5_17TomlConfigAdapterNtNtNtB9_5ports11config_port10ConfigPort4load
FN:46,_RNvXs_NtNtCsffdOlLd9PUE_19rusty_commit_lister8adapters11toml_configNtB4_17TomlConfigAdapterNtNtNtB8_5ports11config_port5Probe5probe
FNDA:0,_RNCNvXs0_NtNtCsdnaWJaLY0Bt_19rusty_commit_lister8adapters11toml_configNtB7_17TomlConfigAdapterNtNtNtBb_5ports11config_port10ConfigPort4load0Bb_
FNDA:0,_RNCNvXs0_NtNtCsdnaWJaLY0Bt_19rusty_commit_lister8adapters11toml_configNtB7_17TomlConfigAdapterNtNtNtBb_5ports11config_port10ConfigPort4loads0_0Bb_
FNDA:7,_RNCNvXs0_NtNtCsdnaWJaLY0Bt_19rusty_commit_lister8adapters11toml_configNtB7_17TomlConfigAdapterNtNtNtBb_5ports11config_port10ConfigPort4loads1_0Bb_
FNDA:1,_RNCNvXs0_NtNtCsdnaWJaLY0Bt_19rusty_commit_lister8adapters11toml_configNtB7_17TomlConfigAdapterNtNtNtBb_5ports11config_port10ConfigPort4loads_0Bb_
FNDA:0,_RNCNvXs_NtNtCsdnaWJaLY0Bt_19rusty_commit_lister8adapters11toml_configNtB6_17TomlConfigAdapterNtNtNtBa_5ports11config_port5Probe5probe0Ba_
FNDA:14,_RNvMNtNtCsdnaWJaLY0Bt_19rusty_commit_lister8adapters11toml_configNtB2_17TomlConfigAdapter3new
FNDA:7,_RNvNtNtCsdnaWJaLY0Bt_19rusty_commit_lister8adapters11toml_config12expand_tilde
FNDA:14,_RNvXs0_NtNtCsdnaWJaLY0Bt_19rusty_commit_lister8adapters11toml_configNtB5_17TomlConfigAdapterNtNtNtB9_5ports11config_port10ConfigPort4load
FNDA:0,_RNvXs_NtNtCsdnaWJaLY0Bt_19rusty_commit_lister8adapters11toml_configNtB4_17TomlConfigAdapterNtNtNtB8_5ports11config_port5Probe5probe
FNDA:0,_RNCNvXs0_NtNtCsffdOlLd9PUE_19rusty_commit_lister8adapters11toml_configNtB7_17TomlConfigAdapterNtNtNtBb_5ports11config_port10ConfigPort4load0Bb_
FNDA:0,_RNCNvXs0_NtNtCsffdOlLd9PUE_19rusty_commit_lister8adapters11toml_configNtB7_17TomlConfigAdapterNtNtNtBb_5ports11config_port10ConfigPort4loads0_0Bb_
FNDA:0,_RNCNvXs0_NtNtCsffdOlLd9PUE_19rusty_commit_lister8adapters11toml_configNtB7_17TomlConfigAdapterNtNtNtBb_5ports11config_port10ConfigPort4loads1_0Bb_
FNDA:0,_RNCNvXs0_NtNtCsffdOlLd9PUE_19rusty_commit_lister8adapters11toml_configNtB7_17TomlConfigAdapterNtNtNtBb_5ports11config_port10ConfigPort4loads_0Bb_
FNDA:0,_RNCNvXs_NtNtCsffdOlLd9PUE_19rusty_commit_lister8adapters11toml_configNtB6_17TomlConfigAdapterNtNtNtBa_5ports11config_port5Probe5probe0Ba_
FNDA:0,_RNvMNtNtCsffdOlLd9PUE_19rusty_commit_lister8adapters11toml_configNtB2_17TomlConfigAdapter3new
FNDA:0,_RNvNtNtCsffdOlLd9PUE_19rusty_commit_lister8adapters11toml_config12expand_tilde
FNDA:0,_RNvXs0_NtNtCsffdOlLd9PUE_19rusty_commit_lister8adapters11toml_configNtB5_17TomlConfigAdapterNtNtNtB9_5ports11config_port10ConfigPort4load
FNDA:0,_RNvXs_NtNtCsffdOlLd9PUE_19rusty_commit_lister8adapters11toml_configNtB4_17TomlConfigAdapterNtNtNtB8_5ports11config_port5Probe5probe
FNF:9
FNH:5
DA:38,14
DA:39,14
DA:40,14
DA:46,0
DA:47,0
DA:48,0
DA:49,0
DA:50,0
DA:52,0
DA:53,0
DA:54,0
DA:55,0
DA:59,14
DA:60,14
DA:61,3
DA:62,11
DA:64,11
DA:65,0
DA:67,0
DA:69,0
DA:71,11
DA:72,1
DA:73,1
DA:75,10
DA:76,10
DA:77,3
DA:78,3
DA:79,3
DA:80,3
DA:81,7
DA:83,7
DA:84,7
DA:85,7
DA:87,7
DA:88,7
DA:89,7
DA:90,7
DA:91,7
DA:92,7
DA:93,14
DA:98,7
DA:99,7
DA:100,0
DA:101,0
DA:103,7
DA:105,7
BRF:0
BRH:0
LF:54
LH:35
end_of_record
SF:/Users/franci/src/personal/rusty-commit-lister/src/adapters/walkdir_vault.rs
FN:73,_RNCNCNvXs0_NtNtCsdnaWJaLY0Bt_19rusty_commit_lister8adapters13walkdir_vaultNtB9_18WalkdirScanAdapterNtNtNtBd_5ports10vault_port13VaultScanPort4scans1_00Bd_
FN:62,_RNCNCNvXs0_NtNtCsdnaWJaLY0Bt_19rusty_commit_lister8adapters13walkdir_vaultNtB9_18WalkdirScanAdapterNtNtNtBd_5ports10vault_port13VaultScanPort4scans_00Bd_
FN:60,_RNCNvXs0_NtNtCsdnaWJaLY0Bt_19rusty_commit_lister8adapters13walkdir_vaultNtB7_18WalkdirScanAdapterNtNtNtBb_5ports10vault_port13VaultScanPort4scan0Bb_
FN:70,_RNCNvXs0_NtNtCsdnaWJaLY0Bt_19rusty_commit_lister8adapters13walkdir_vaultNtB7_18WalkdirScanAdapterNtNtNtBb_5ports10vault_port13VaultScanPort4scans0_0Bb_
FN:73,_RNCNvXs0_NtNtCsdnaWJaLY0Bt_19rusty_commit_lister8adapters13walkdir_vaultNtB7_18WalkdirScanAdapterNtNtNtBb_5ports10vault_port13VaultScanPort4scans1_0Bb_
FN:61,_RNCNvXs0_NtNtCsdnaWJaLY0Bt_19rusty_commit_lister8adapters13walkdir_vaultNtB7_18WalkdirScanAdapterNtNtNtBb_5ports10vault_port13VaultScanPort4scans_0Bb_
FN:33,_RNvMNtNtCsdnaWJaLY0Bt_19rusty_commit_lister8adapters13walkdir_vaultNtB2_18WalkdirScanAdapter3new
FN:52,_RNvXs0_NtNtCsdnaWJaLY0Bt_19rusty_commit_lister8adapters13walkdir_vaultNtB5_18WalkdirScanAdapterNtNtNtB9_5ports10vault_port13VaultScanPort4scan
FN:39,_RNvXs_NtNtCsdnaWJaLY0Bt_19rusty_commit_lister8adapters13walkdir_vaultNtB4_18WalkdirScanAdapterNtNtNtB8_5ports11config_port5Probe5probe
FN:73,_RNCNCNvXs0_NtNtCsffdOlLd9PUE_19rusty_commit_lister8adapters13walkdir_vaultNtB9_18WalkdirScanAdapterNtNtNtBd_5ports10vault_port13VaultScanPort4scans1_00Bd_
FN:62,_RNCNCNvXs0_NtNtCsffdOlLd9PUE_19rusty_commit_lister8adapters13walkdir_vaultNtB9_18WalkdirScanAdapterNtNtNtBd_5ports10vault_port13VaultScanPort4scans_00Bd_
FN:60,_RNCNvXs0_NtNtCsffdOlLd9PUE_19rusty_commit_lister8adapters13walkdir_vaultNtB7_18WalkdirScanAdapterNtNtNtBb_5ports10vault_port13VaultScanPort4scan0Bb_
FN:70,_RNCNvXs0_NtNtCsffdOlLd9PUE_19rusty_commit_lister8adapters13walkdir_vaultNtB7_18WalkdirScanAdapterNtNtNtBb_5ports10vault_port13VaultScanPort4scans0_0Bb_
FN:73,_RNCNvXs0_NtNtCsffdOlLd9PUE_19rusty_commit_lister8adapters13walkdir_vaultNtB7_18WalkdirScanAdapterNtNtNtBb_5ports10vault_port13VaultScanPort4scans1_0Bb_
FN:61,_RNCNvXs0_NtNtCsffdOlLd9PUE_19rusty_commit_lister8adapters13walkdir_vaultNtB7_18WalkdirScanAdapterNtNtNtBb_5ports10vault_port13VaultScanPort4scans_0Bb_
FN:33,_RNvMNtNtCsffdOlLd9PUE_19rusty_commit_lister8adapters13walkdir_vaultNtB2_18WalkdirScanAdapter3new
FN:52,_RNvXs0_NtNtCsffdOlLd9PUE_19rusty_commit_lister8adapters13walkdir_vaultNtB5_18WalkdirScanAdapterNtNtNtB9_5ports10vault_port13VaultScanPort4scan
FN:39,_RNvXs_NtNtCsffdOlLd9PUE_19rusty_commit_lister8adapters13walkdir_vaultNtB4_18WalkdirScanAdapterNtNtNtB8_5ports11config_port5Probe5probe
FNDA:3,_RNCNCNvXs0_NtNtCsdnaWJaLY0Bt_19rusty_commit_lister8adapters13walkdir_vaultNtB9_18WalkdirScanAdapterNtNtNtBd_5ports10vault_port13VaultScanPort4scans1_00Bd_
FNDA:9,_RNCNCNvXs0_NtNtCsdnaWJaLY0Bt_19rusty_commit_lister8adapters13walkdir_vaultNtB9_18WalkdirScanAdapterNtNtNtBd_5ports10vault_port13VaultScanPort4scans_00Bd_
FNDA:19,_RNCNvXs0_NtNtCsdnaWJaLY0Bt_19rusty_commit_lister8adapters13walkdir_vaultNtB7_18WalkdirScanAdapterNtNtNtBb_5ports10vault_port13VaultScanPort4scan0Bb_
FNDA:9,_RNCNvXs0_NtNtCsdnaWJaLY0Bt_19rusty_commit_lister8adapters13walkdir_vaultNtB7_18WalkdirScanAdapterNtNtNtBb_5ports10vault_port13VaultScanPort4scans0_0Bb_
FNDA:4,_RNCNvXs0_NtNtCsdnaWJaLY0Bt_19rusty_commit_lister8adapters13walkdir_vaultNtB7_18WalkdirScanAdapterNtNtNtBb_5ports10vault_port13VaultScanPort4scans1_0Bb_
FNDA:9,_RNCNvXs0_NtNtCsdnaWJaLY0Bt_19rusty_commit_lister8adapters13walkdir_vaultNtB7_18WalkdirScanAdapterNtNtNtBb_5ports10vault_port13VaultScanPort4scans_0Bb_
FNDA:10,_RNvMNtNtCsdnaWJaLY0Bt_19rusty_commit_lister8adapters13walkdir_vaultNtB2_18WalkdirScanAdapter3new
FNDA:10,_RNvXs0_NtNtCsdnaWJaLY0Bt_19rusty_commit_lister8adapters13walkdir_vaultNtB5_18WalkdirScanAdapterNtNtNtB9_5ports10vault_port13VaultScanPort4scan
FNDA:6,_RNvXs_NtNtCsdnaWJaLY0Bt_19rusty_commit_lister8adapters13walkdir_vaultNtB4_18WalkdirScanAdapterNtNtNtB8_5ports11config_port5Probe5probe
FNDA:0,_RNCNCNvXs0_NtNtCsffdOlLd9PUE_19rusty_commit_lister8adapters13walkdir_vaultNtB9_18WalkdirScanAdapterNtNtNtBd_5ports10vault_port13VaultScanPort4scans1_00Bd_
FNDA:0,_RNCNCNvXs0_NtNtCsffdOlLd9PUE_19rusty_commit_lister8adapters13walkdir_vaultNtB9_18WalkdirScanAdapterNtNtNtBd_5ports10vault_port13VaultScanPort4scans_00Bd_
FNDA:0,_RNCNvXs0_NtNtCsffdOlLd9PUE_19rusty_commit_lister8adapters13walkdir_vaultNtB7_18WalkdirScanAdapterNtNtNtBb_5ports10vault_port13VaultScanPort4scan0Bb_
FNDA:0,_RNCNvXs0_NtNtCsffdOlLd9PUE_19rusty_commit_lister8adapters13walkdir_vaultNtB7_18WalkdirScanAdapterNtNtNtBb_5ports10vault_port13VaultScanPort4scans0_0Bb_
FNDA:0,_RNCNvXs0_NtNtCsffdOlLd9PUE_19rusty_commit_lister8adapters13walkdir_vaultNtB7_18WalkdirScanAdapterNtNtNtBb_5ports10vault_port13VaultScanPort4scans1_0Bb_
FNDA:0,_RNCNvXs0_NtNtCsffdOlLd9PUE_19rusty_commit_lister8adapters13walkdir_vaultNtB7_18WalkdirScanAdapterNtNtNtBb_5ports10vault_port13VaultScanPort4scans_0Bb_
FNDA:0,_RNvMNtNtCsffdOlLd9PUE_19rusty_commit_lister8adapters13walkdir_vaultNtB2_18WalkdirScanAdapter3new
FNDA:0,_RNvXs0_NtNtCsffdOlLd9PUE_19rusty_commit_lister8adapters13walkdir_vaultNtB5_18WalkdirScanAdapterNtNtNtB9_5ports10vault_port13VaultScanPort4scan
FNDA:0,_RNvXs_NtNtCsffdOlLd9PUE_19rusty_commit_lister8adapters13walkdir_vaultNtB4_18WalkdirScanAdapterNtNtNtB8_5ports11config_port5Probe5probe
FNF:9
FNH:9
DA:33,10
DA:34,10
DA:35,10
DA:39,6
DA:40,6
DA:41,6
DA:43,0
DA:44,0
DA:45,0
DA:46,0
DA:48,6
DA:52,10
DA:53,10
DA:54,10
DA:56,10
DA:57,10
DA:58,10
DA:59,10
DA:60,19
DA:61,10
DA:62,9
DA:63,9
DA:64,9
DA:65,9
DA:67,0
DA:69,9
DA:70,10
DA:71,10
DA:73,10
DA:75,10
DA:76,10
BRF:0
BRH:0
LF:37
LH:32
end_of_record
SF:/Users/franci/src/personal/rusty-commit-lister/src/domain/model.rs
FN:100,_RNvMs_NtNtCsdnaWJaLY0Bt_19rusty_commit_lister6domain5modelNtB4_8AppModel3new
FN:53,_RNvXNtNtCsdnaWJaLY0Bt_19rusty_commit_lister6domain5modelNtB2_9AppConfigNtNtCs6bbfkRe74Oh_4core7default7Default7default
FN:100,_RNvMs_NtNtCsffdOlLd9PUE_19rusty_commit_lister6domain5modelNtB4_8AppModel3new
FN:53,_RNvXNtNtCsffdOlLd9PUE_19rusty_commit_lister6domain5modelNtB2_9AppConfigNtNtCs6bbfkRe74Oh_4core7default7Default7default
FNDA:357,_RNvMs_NtNtCsdnaWJaLY0Bt_19rusty_commit_lister6domain5modelNtB4_8AppModel3new
FNDA:354,_RNvXNtNtCsdnaWJaLY0Bt_19rusty_commit_lister6domain5modelNtB2_9AppConfigNtNtCs6bbfkRe74Oh_4core7default7Default7default
FNDA:0,_RNvMs_NtNtCsffdOlLd9PUE_19rusty_commit_lister6domain5modelNtB4_8AppModel3new
FNDA:0,_RNvXNtNtCsffdOlLd9PUE_19rusty_commit_lister6domain5modelNtB2_9AppConfigNtNtCs6bbfkRe74Oh_4core7default7Default7default
FNF:2
FNH:2
DA:53,354
DA:54,354
DA:55,354
DA:56,354
DA:57,354
DA:58,354
DA:59,354
DA:60,354
DA:100,357
DA:101,357
DA:102,357
DA:103,357
DA:104,357
DA:105,357
DA:106,357
DA:107,357
DA:108,357
DA:109,357
DA:110,357
DA:111,357
DA:112,357
DA:113,357
DA:114,357
DA:115,357
DA:116,357
DA:117,357
BRF:0
BRH:0
LF:26
LH:26
end_of_record
SF:/Users/franci/src/personal/rusty-commit-lister/src/domain/update.rs
FN:26,_RNCNvNtNtCsdnaWJaLY0Bt_19rusty_commit_lister6domain6update14distinct_repos0B7_
FN:35,_RNCNvNtNtCsdnaWJaLY0Bt_19rusty_commit_lister6domain6update14distinct_reposs0_0B7_
FN:28,_RNCNvNtNtCsdnaWJaLY0Bt_19rusty_commit_lister6domain6update14distinct_reposs_0B7_
FN:95,_RNCNvNtNtCsdnaWJaLY0Bt_19rusty_commit_lister6domain6update18recompute_filtered0B7_
FN:111,_RNCNvNtNtCsdnaWJaLY0Bt_19rusty_commit_lister6domain6update19repo_filter_matches0B7_
FN:134,_RNvNtNtCsdnaWJaLY0Bt_19rusty_commit_lister6domain6update10handle_key
FN:19,_RNvNtNtCsdnaWJaLY0Bt_19rusty_commit_lister6domain6update14distinct_repos
FN:143,_RNvNtNtCsdnaWJaLY0Bt_19rusty_commit_lister6domain6update17handle_browse_key
FN:217,_RNvNtNtCsdnaWJaLY0Bt_19rusty_commit_lister6domain6update17handle_detail_key
FN:193,_RNvNtNtCsdnaWJaLY0Bt_19rusty_commit_lister6domain6update17handle_search_key
FN:91,_RNvNtNtCsdnaWJaLY0Bt_19rusty_commit_lister6domain6update18recompute_filtered
FN:110,_RNvNtNtCsdnaWJaLY0Bt_19rusty_commit_lister6domain6update19repo_filter_matches
FN:120,_RNvNtNtCsdnaWJaLY0Bt_19rusty_commit_lister6domain6update20search_query_matches
FN:244,_RNvNtNtCsdnaWJaLY0Bt_19rusty_commit_lister6domain6update22handle_repo_picker_key
FN:102,_RNvNtNtCsdnaWJaLY0Bt_19rusty_commit_lister6domain6update22record_matches_filters
FN:63,_RNvNtNtCsdnaWJaLY0Bt_19rusty_commit_lister6domain6update6update
FN:26,_RNCNvNtNtCsffdOlLd9PUE_19rusty_commit_lister6domain6update14distinct_repos0B7_
FN:35,_RNCNvNtNtCsffdOlLd9PUE_19rusty_commit_lister6domain6update14distinct_reposs0_0B7_
FN:28,_RNCNvNtNtCsffdOlLd9PUE_19rusty_commit_lister6domain6update14distinct_reposs_0B7_
FN:95,_RNCNvNtNtCsffdOlLd9PUE_19rusty_commit_lister6domain6update18recompute_filtered0B7_
FN:111,_RNCNvNtNtCsffdOlLd9PUE_19rusty_commit_lister6domain6update19repo_filter_matches0B7_
FN:134,_RNvNtNtCsffdOlLd9PUE_19rusty_commit_lister6domain6update10handle_key
FN:19,_RNvNtNtCsffdOlLd9PUE_19rusty_commit_lister6domain6update14distinct_repos
FN:143,_RNvNtNtCsffdOlLd9PUE_19rusty_commit_lister6domain6update17handle_browse_key
FN:217,_RNvNtNtCsffdOlLd9PUE_19rusty_commit_lister6domain6update17handle_detail_key
FN:193,_RNvNtNtCsffdOlLd9PUE_19rusty_commit_lister6domain6update17handle_search_key
FN:91,_RNvNtNtCsffdOlLd9PUE_19rusty_commit_lister6domain6update18recompute_filtered
FN:110,_RNvNtNtCsffdOlLd9PUE_19rusty_commit_lister6domain6update19repo_filter_matches
FN:120,_RNvNtNtCsffdOlLd9PUE_19rusty_commit_lister6domain6update20search_query_matches
FN:244,_RNvNtNtCsffdOlLd9PUE_19rusty_commit_lister6domain6update22handle_repo_picker_key
FN:102,_RNvNtNtCsffdOlLd9PUE_19rusty_commit_lister6domain6update22record_matches_filters
FN:63,_RNvNtNtCsffdOlLd9PUE_19rusty_commit_lister6domain6update6update
FNDA:1197,_RNCNvNtNtCsdnaWJaLY0Bt_19rusty_commit_lister6domain6update14distinct_repos0B7_
FNDA:1031,_RNCNvNtNtCsdnaWJaLY0Bt_19rusty_commit_lister6domain6update14distinct_reposs0_0B7_
FNDA:1,_RNCNvNtNtCsdnaWJaLY0Bt_19rusty_commit_lister6domain6update14distinct_reposs_0B7_
FNDA:1908,_RNCNvNtNtCsdnaWJaLY0Bt_19rusty_commit_lister6domain6update18recompute_filtered0B7_
FNDA:174,_RNCNvNtNtCsdnaWJaLY0Bt_19rusty_commit_lister6domain6update19repo_filter_matches0B7_
FNDA:2653,_RNvNtNtCsdnaWJaLY0Bt_19rusty_commit_lister6domain6update10handle_key
FNDA:400,_RNvNtNtCsdnaWJaLY0Bt_19rusty_commit_lister6domain6update14distinct_repos
FNDA:1336,_RNvNtNtCsdnaWJaLY0Bt_19rusty_commit_lister6domain6update17handle_browse_key
FNDA:538,_RNvNtNtCsdnaWJaLY0Bt_19rusty_commit_lister6domain6update17handle_detail_key
FNDA:385,_RNvNtNtCsdnaWJaLY0Bt_19rusty_commit_lister6domain6update17handle_search_key
FNDA:623,_RNvNtNtCsdnaWJaLY0Bt_19rusty_commit_lister6domain6update18recompute_filtered
FNDA:1908,_RNvNtNtCsdnaWJaLY0Bt_19rusty_commit_lister6domain6update19repo_filter_matches
FNDA:1902,_RNvNtNtCsdnaWJaLY0Bt_19rusty_commit_lister6domain6update20search_query_matches
FNDA:394,_RNvNtNtCsdnaWJaLY0Bt_19rusty_commit_lister6domain6update22handle_repo_picker_key
FNDA:1908,_RNvNtNtCsdnaWJaLY0Bt_19rusty_commit_lister6domain6update22record_matches_filters
FNDA:3310,_RNvNtNtCsdnaWJaLY0Bt_19rusty_commit_lister6domain6update6update
FNDA:0,_RNCNvNtNtCsffdOlLd9PUE_19rusty_commit_lister6domain6update14distinct_repos0B7_
FNDA:0,_RNCNvNtNtCsffdOlLd9PUE_19rusty_commit_lister6domain6update14distinct_reposs0_0B7_
FNDA:0,_RNCNvNtNtCsffdOlLd9PUE_19rusty_commit_lister6domain6update14distinct_reposs_0B7_
FNDA:0,_RNCNvNtNtCsffdOlLd9PUE_19rusty_commit_lister6domain6update18recompute_filtered0B7_
FNDA:0,_RNCNvNtNtCsffdOlLd9PUE_19rusty_commit_lister6domain6update19repo_filter_matches0B7_
FNDA:0,_RNvNtNtCsffdOlLd9PUE_19rusty_commit_lister6domain6update10handle_key
FNDA:0,_RNvNtNtCsffdOlLd9PUE_19rusty_commit_lister6domain6update14distinct_repos
FNDA:0,_RNvNtNtCsffdOlLd9PUE_19rusty_commit_lister6domain6update17handle_browse_key
FNDA:0,_RNvNtNtCsffdOlLd9PUE_19rusty_commit_lister6domain6update17handle_detail_key
FNDA:0,_RNvNtNtCsffdOlLd9PUE_19rusty_commit_lister6domain6update17handle_search_key
FNDA:0,_RNvNtNtCsffdOlLd9PUE_19rusty_commit_lister6domain6update18recompute_filtered
FNDA:0,_RNvNtNtCsffdOlLd9PUE_19rusty_commit_lister6domain6update19repo_filter_matches
FNDA:0,_RNvNtNtCsffdOlLd9PUE_19rusty_commit_lister6domain6update20search_query_matches
FNDA:0,_RNvNtNtCsffdOlLd9PUE_19rusty_commit_lister6domain6update22handle_repo_picker_key
FNDA:0,_RNvNtNtCsffdOlLd9PUE_19rusty_commit_lister6domain6update22record_matches_filters
FNDA:0,_RNvNtNtCsffdOlLd9PUE_19rusty_commit_lister6domain6update6update
FNF:16
FNH:16
DA:19,400
DA:21,400
DA:22,1198
DA:23,1198
DA:24,1198
DA:25,1198
DA:26,1198
DA:27,1198
DA:28,1198
DA:29,1198
DA:30,1198
DA:31,1198
DA:32,1198
DA:34,400
DA:35,1031
DA:36,400
DA:37,400
DA:63,3310
DA:64,2
DA:65,341
DA:66,341
DA:67,341
DA:68,341
DA:69,341
DA:70,341
DA:71,1
DA:72,1
DA:73,1
DA:74,1
DA:75,1
DA:76,1
DA:77,1
DA:78,1
DA:79,1
DA:80,1
DA:81,1
DA:82,1
DA:83,313
DA:84,2653
DA:85,2653
DA:86,2653
DA:88,3310
DA:89,3310
DA:91,623
DA:92,623
DA:93,623
DA:94,623
DA:95,1908
DA:96,1908
DA:97,1908
DA:98,623
DA:99,623
DA:100,623
DA:102,1908
DA:103,1908
DA:104,1908
DA:105,1908
DA:106,1908
DA:107,1908
DA:108,1908
DA:110,1908
DA:111,1908
DA:112,174
DA:113,174
DA:114,174
DA:115,174
DA:116,174
DA:117,174
DA:118,1908
DA:120,1902
DA:121,1902
DA:122,1215
DA:123,687
DA:124,687
DA:125,687
DA:126,633
DA:127,633
DA:128,633
DA:129,633
DA:130,633
DA:131,633
DA:132,1902
DA:134,2653
DA:135,2653
DA:136,1336
DA:137,385
DA:138,538
DA:139,394
DA:141,2653
DA:143,1336
DA:144,1336
DA:145,1336
DA:147,136
DA:148,124
DA:149,124
DA:152,135
DA:153,123
DA:154,123
DA:157,172
DA:158,159
DA:159,159
DA:161,158
DA:162,158
DA:163,158
DA:164,137
DA:165,137
DA:166,137
DA:167,137
DA:169,151
DA:170,140
DA:171,140
DA:174,155
DA:175,10
DA:176,10
DA:177,145
DA:178,145
DA:179,145
DA:180,145
DA:182,1
DA:183,1
DA:184,1
DA:185,291
DA:186,291
DA:187,291
DA:188,0
DA:190,1336
DA:191,1336
DA:193,385
DA:194,223
DA:195,35
DA:196,35
DA:197,35
DA:198,35
DA:199,35
DA:200,50
DA:201,50
DA:202,50
DA:203,50
DA:204,1
DA:205,1
DA:206,1
DA:207,1
DA:208,223
DA:209,222
DA:210,222
DA:211,222
DA:212,77
DA:214,385
DA:215,385
DA:217,538
DA:218,538
DA:219,54
DA:220,54
DA:221,54
DA:223,3
DA:224,3
DA:225,3
DA:226,2
DA:227,1
DA:228,1
DA:229,1
DA:230,1
DA:231,1
DA:232,1
DA:233,1
DA:234,1
DA:235,1
DA:236,1
DA:237,0
DA:239,481
DA:241,538
DA:242,538
DA:244,394
DA:245,394
DA:246,394
DA:247,394
DA:249,45
DA:250,45
DA:251,45
DA:254,42
DA:255,42
DA:256,42
DA:259,49
DA:260,49
DA:261,49
DA:262,49
DA:263,49
DA:264,49
DA:266,44
DA:267,44
DA:268,44
DA:269,214
DA:271,394
DA:272,394
BRF:0
BRH:0
LF:199
LH:197
end_of_record
SF:/Users/franci/src/personal/rusty-commit-lister/src/error.rs
FN:60,_RINvMNtCsdnaWJaLY0Bt_19rusty_commit_lister5errorNtB3_22RustyCommitListerError21clipboard_unavailableNtNtCsdvOHDJEBN7l_5alloc6string6StringEB5_
FN:48,_RINvMNtCsdnaWJaLY0Bt_19rusty_commit_lister5errorNtB3_22RustyCommitListerError5vaultNtNtCsdvOHDJEBN7l_5alloc6string6StringEB5_
FN:36,_RINvMNtCsdnaWJaLY0Bt_19rusty_commit_lister5errorNtB3_22RustyCommitListerError6configNtNtCsdvOHDJEBN7l_5alloc6string6StringEB5_
FN:66,_RINvMNtCsffdOlLd9PUE_19rusty_commit_lister5errorNtB3_22RustyCommitListerError16external_servicepEB5_
FN:60,_RINvMNtCsffdOlLd9PUE_19rusty_commit_lister5errorNtB3_22RustyCommitListerError21clipboard_unavailablepEB5_
FN:54,_RINvMNtCsffdOlLd9PUE_19rusty_commit_lister5errorNtB3_22RustyCommitListerError5parsepEB5_
FN:48,_RINvMNtCsffdOlLd9PUE_19rusty_commit_lister5errorNtB3_22RustyCommitListerError5vaultpEB5_
FN:87,_RNvNtNtCsffdOlLd9PUE_19rusty_commit_lister5error5testss_18test_error_display
FN:81,_RNvNtNtCsffdOlLd9PUE_19rusty_commit_lister5error5testss_19test_error_creation
FN:42,_RINvMNtCsffdOlLd9PUE_19rusty_commit_lister5errorNtB3_22RustyCommitListerError10validationReEB5_
FN:36,_RINvMNtCsffdOlLd9PUE_19rusty_commit_lister5errorNtB3_22RustyCommitListerError6configReEB5_
FNDA:2,_RINvMNtCsdnaWJaLY0Bt_19rusty_commit_lister5errorNtB3_22RustyCommitListerError21clipboard_unavailableNtNtCsdvOHDJEBN7l_5alloc6string6StringEB5_
FNDA:0,_RINvMNtCsdnaWJaLY0Bt_19rusty_commit_lister5errorNtB3_22RustyCommitListerError5vaultNtNtCsdvOHDJEBN7l_5alloc6string6StringEB5_
FNDA:4,_RINvMNtCsdnaWJaLY0Bt_19rusty_commit_lister5errorNtB3_22RustyCommitListerError6configNtNtCsdvOHDJEBN7l_5alloc6string6StringEB5_
FNDA:0,_RINvMNtCsffdOlLd9PUE_19rusty_commit_lister5errorNtB3_22RustyCommitListerError16external_servicepEB5_
FNDA:0,_RINvMNtCsffdOlLd9PUE_19rusty_commit_lister5errorNtB3_22RustyCommitListerError21clipboard_unavailablepEB5_
FNDA:0,_RINvMNtCsffdOlLd9PUE_19rusty_commit_lister5errorNtB3_22RustyCommitListerError5parsepEB5_
FNDA:0,_RINvMNtCsffdOlLd9PUE_19rusty_commit_lister5errorNtB3_22RustyCommitListerError5vaultpEB5_
FNDA:1,_RNvNtNtCsffdOlLd9PUE_19rusty_commit_lister5error5testss_18test_error_display
FNDA:1,_RNvNtNtCsffdOlLd9PUE_19rusty_commit_lister5error5testss_19test_error_creation
FNDA:1,_RINvMNtCsffdOlLd9PUE_19rusty_commit_lister5errorNtB3_22RustyCommitListerError10validationReEB5_
FNDA:1,_RINvMNtCsffdOlLd9PUE_19rusty_commit_lister5errorNtB3_22RustyCommitListerError6configReEB5_
FNF:8
FNH:5
DA:36,5
DA:37,5
DA:38,5
DA:39,5
DA:40,5
DA:42,1
DA:43,1
DA:44,1
DA:45,1
DA:46,1
DA:48,0
DA:49,0
DA:50,0
DA:51,0
DA:52,0
DA:54,0
DA:55,0
DA:56,0
DA:57,0
DA:58,0
DA:60,2
DA:61,2
DA:62,2
DA:63,2
DA:64,2
DA:66,0
DA:67,0
DA:68,0
DA:69,0
DA:70,0
DA:81,1
DA:82,1
DA:83,1
DA:84,1
DA:87,1
DA:88,1
DA:89,1
DA:90,1
BRF:0
BRH:0
LF:38
LH:23
end_of_record
SF:/Users/franci/src/personal/rusty-commit-lister/src/main.rs
FN:115,_RNCNCNvCsjFm4Q9pnWei_19rusty_commit_lister4mains1_00B5_
FN:123,_RNCNCNvCsjFm4Q9pnWei_19rusty_commit_lister4mains2_00B5_
FN:20,_RNCNvCsjFm4Q9pnWei_19rusty_commit_lister19default_config_path0B3_
FN:66,_RNCNvCsjFm4Q9pnWei_19rusty_commit_lister4main0B3_
FN:94,_RNCNvCsjFm4Q9pnWei_19rusty_commit_lister4mains0_0B3_
FN:112,_RNCNvCsjFm4Q9pnWei_19rusty_commit_lister4mains1_0B3_
FN:120,_RNCNvCsjFm4Q9pnWei_19rusty_commit_lister4mains2_0B3_
FN:80,_RNCNvCsjFm4Q9pnWei_19rusty_commit_lister4mains_0B3_
FN:19,_RNvCsjFm4Q9pnWei_19rusty_commit_lister19default_config_path
FN:27,_RNvCsjFm4Q9pnWei_19rusty_commit_lister4main
FN:115,_RNCNCNvCskTLto71KBzp_19rusty_commit_lister4mains1_00B5_
FN:123,_RNCNCNvCskTLto71KBzp_19rusty_commit_lister4mains2_00B5_
FN:20,_RNCNvCskTLto71KBzp_19rusty_commit_lister19default_config_path0B3_
FN:66,_RNCNvCskTLto71KBzp_19rusty_commit_lister4main0B3_
FN:94,_RNCNvCskTLto71KBzp_19rusty_commit_lister4mains0_0B3_
FN:112,_RNCNvCskTLto71KBzp_19rusty_commit_lister4mains1_0B3_
FN:120,_RNCNvCskTLto71KBzp_19rusty_commit_lister4mains2_0B3_
FN:80,_RNCNvCskTLto71KBzp_19rusty_commit_lister4mains_0B3_
FN:19,_RNvCskTLto71KBzp_19rusty_commit_lister19default_config_path
FN:27,_RNvCskTLto71KBzp_19rusty_commit_lister4main
FNDA:0,_RNCNCNvCsjFm4Q9pnWei_19rusty_commit_lister4mains1_00B5_
FNDA:0,_RNCNCNvCsjFm4Q9pnWei_19rusty_commit_lister4mains2_00B5_
FNDA:0,_RNCNvCsjFm4Q9pnWei_19rusty_commit_lister19default_config_path0B3_
FNDA:0,_RNCNvCsjFm4Q9pnWei_19rusty_commit_lister4main0B3_
FNDA:0,_RNCNvCsjFm4Q9pnWei_19rusty_commit_lister4mains0_0B3_
FNDA:0,_RNCNvCsjFm4Q9pnWei_19rusty_commit_lister4mains1_0B3_
FNDA:0,_RNCNvCsjFm4Q9pnWei_19rusty_commit_lister4mains2_0B3_
FNDA:0,_RNCNvCsjFm4Q9pnWei_19rusty_commit_lister4mains_0B3_
FNDA:0,_RNvCsjFm4Q9pnWei_19rusty_commit_lister19default_config_path
FNDA:0,_RNvCsjFm4Q9pnWei_19rusty_commit_lister4main
FNDA:0,_RNCNCNvCskTLto71KBzp_19rusty_commit_lister4mains1_00B5_
FNDA:0,_RNCNCNvCskTLto71KBzp_19rusty_commit_lister4mains2_00B5_
FNDA:0,_RNCNvCskTLto71KBzp_19rusty_commit_lister19default_config_path0B3_
FNDA:3,_RNCNvCskTLto71KBzp_19rusty_commit_lister4main0B3_
FNDA:0,_RNCNvCskTLto71KBzp_19rusty_commit_lister4mains0_0B3_
FNDA:0,_RNCNvCskTLto71KBzp_19rusty_commit_lister4mains1_0B3_
FNDA:0,_RNCNvCskTLto71KBzp_19rusty_commit_lister4mains2_0B3_
FNDA:0,_RNCNvCskTLto71KBzp_19rusty_commit_lister4mains_0B3_
FNDA:0,_RNvCskTLto71KBzp_19rusty_commit_lister19default_config_path
FNDA:11,_RNvCskTLto71KBzp_19rusty_commit_lister4main
FNF:10
FNH:2
DA:19,0
DA:20,0
DA:21,0
DA:22,0
DA:23,0
DA:24,0
DA:25,0
DA:27,11
DA:28,11
DA:29,11
DA:31,11
DA:32,11
DA:33,11
DA:34,11
DA:35,11
DA:36,11
DA:37,11
DA:38,11
DA:39,11
DA:40,11
DA:42,11
DA:43,11
DA:44,11
DA:45,11
DA:46,11
DA:47,11
DA:49,11
DA:51,11
DA:52,11
DA:53,0
DA:54,11
DA:57,11
DA:58,11
DA:59,11
DA:62,11
DA:63,11
DA:64,11
DA:65,11
DA:66,11
DA:67,3
DA:68,3
DA:71,11
DA:72,2
DA:73,2
DA:74,9
DA:77,9
DA:78,9
DA:80,9
DA:81,0
DA:82,0
DA:86,9
DA:87,9
DA:88,9
DA:89,9
DA:90,5
DA:91,4
DA:94,9
DA:95,0
DA:96,0
DA:97,0
DA:100,9
DA:101,9
DA:102,9
DA:103,9
DA:104,9
DA:108,9
DA:109,0
DA:110,0
DA:111,0
DA:112,0
DA:113,0
DA:114,0
DA:115,0
DA:116,0
DA:117,0
DA:118,0
DA:119,0
DA:120,0
DA:121,0
DA:122,0
DA:123,0
DA:124,0
DA:125,0
DA:126,9
DA:127,1
DA:128,1
DA:129,1
DA:130,1
DA:131,1
DA:132,8
DA:133,8
DA:134,5
DA:135,5
DA:138,9
DA:139,11
BRF:0
BRH:0
LF:101
LH:66
end_of_record
SF:/Users/franci/src/personal/rusty-commit-lister/src/parser/mod.rs
FN:34,_RNvNtCsdnaWJaLY0Bt_19rusty_commit_lister6parser10parse_note
FN:114,_RNvNtCsdnaWJaLY0Bt_19rusty_commit_lister6parser15optional_column
FN:108,_RNvNtCsdnaWJaLY0Bt_19rusty_commit_lister6parser16is_separator_row
FN:110,_RNCNCNvNtCsdnaWJaLY0Bt_19rusty_commit_lister6parser16is_separator_row00B7_
FN:37,_RNCNvNtCsdnaWJaLY0Bt_19rusty_commit_lister6parser10parse_note0B5_
FN:110,_RNCNvNtCsdnaWJaLY0Bt_19rusty_commit_lister6parser16is_separator_row0B5_
FN:110,_RNCNCNvNtCsffdOlLd9PUE_19rusty_commit_lister6parser16is_separator_row00B7_
FN:37,_RNCNvNtCsffdOlLd9PUE_19rusty_commit_lister6parser10parse_note0B5_
FN:110,_RNCNvNtCsffdOlLd9PUE_19rusty_commit_lister6parser16is_separator_row0B5_
FN:34,_RNvNtCsffdOlLd9PUE_19rusty_commit_lister6parser10parse_note
FN:114,_RNvNtCsffdOlLd9PUE_19rusty_commit_lister6parser15optional_column
FN:108,_RNvNtCsffdOlLd9PUE_19rusty_commit_lister6parser16is_separator_row
FNDA:417,_RNvNtCsdnaWJaLY0Bt_19rusty_commit_lister6parser10parse_note
FNDA:2047,_RNvNtCsdnaWJaLY0Bt_19rusty_commit_lister6parser15optional_column
FNDA:2474,_RNvNtCsdnaWJaLY0Bt_19rusty_commit_lister6parser16is_separator_row
FNDA:5400,_RNCNCNvNtCsdnaWJaLY0Bt_19rusty_commit_lister6parser16is_separator_row00B7_
FNDA:417,_RNCNvNtCsdnaWJaLY0Bt_19rusty_commit_lister6parser10parse_note0B5_
FNDA:3113,_RNCNvNtCsdnaWJaLY0Bt_19rusty_commit_lister6parser16is_separator_row0B5_
FNDA:0,_RNCNCNvNtCsffdOlLd9PUE_19rusty_commit_lister6parser16is_separator_row00B7_
FNDA:0,_RNCNvNtCsffdOlLd9PUE_19rusty_commit_lister6parser10parse_note0B5_
FNDA:0,_RNCNvNtCsffdOlLd9PUE_19rusty_commit_lister6parser16is_separator_row0B5_
FNDA:0,_RNvNtCsffdOlLd9PUE_19rusty_commit_lister6parser10parse_note
FNDA:0,_RNvNtCsffdOlLd9PUE_19rusty_commit_lister6parser15optional_column
FNDA:0,_RNvNtCsffdOlLd9PUE_19rusty_commit_lister6parser16is_separator_row
FNF:6
FNH:6
DA:34,417
DA:35,417
DA:36,417
DA:37,417
DA:38,417
DA:39,417
DA:41,417
DA:42,417
DA:43,0
DA:44,0
DA:45,0
DA:49,417
DA:50,417
DA:51,417
DA:53,3127
DA:54,3127
DA:56,3127
DA:57,213
DA:58,213
DA:59,2914
DA:61,2914
DA:62,223
DA:63,2691
DA:65,2691
DA:66,217
DA:67,1
DA:68,216
DA:69,216
DA:70,2474
DA:72,2474
DA:73,2474
DA:74,2474
DA:75,2474
DA:76,2474
DA:78,2474
DA:79,213
DA:80,2261
DA:82,2261
DA:83,213
DA:84,213
DA:85,2048
DA:87,2048
DA:88,1
DA:89,1
DA:90,2047
DA:92,2047
DA:94,2047
DA:95,2047
DA:96,2047
DA:97,2047
DA:98,2047
DA:99,2047
DA:100,2047
DA:103,417
DA:104,417
DA:108,2474
DA:109,2474
DA:110,5400
DA:111,2474
DA:114,2047
DA:115,2047
DA:116,1
DA:118,2046
DA:120,2047
BRF:0
BRH:0
LF:67
LH:64
end_of_record
SF:/Users/franci/src/personal/rusty-commit-lister/src/ports/clipboard_port.rs
FN:51,_RNvMs_NtNtNtCsffdOlLd9PUE_19rusty_commit_lister5ports14clipboard_port4fakeNtB4_13FakeClipboard12last_written
FN:45,_RNvMs_NtNtNtCsffdOlLd9PUE_19rusty_commit_lister5ports14clipboard_port4fakeNtB4_13FakeClipboard3new
FN:39,_RNvXNtNtNtCsffdOlLd9PUE_19rusty_commit_lister5ports14clipboard_port4fakeNtB2_13FakeClipboardNtNtCs6bbfkRe74Oh_4core7default7Default7default
FN:57,_RNvXs0_NtNtNtCsffdOlLd9PUE_19rusty_commit_lister5ports14clipboard_port4fakeNtB5_13FakeClipboardNtNtB9_11config_port5Probe5probe
FN:63,_RNvXs1_NtNtNtCsffdOlLd9PUE_19rusty_commit_lister5ports14clipboard_port4fakeNtB5_13FakeClipboardNtB7_13ClipboardPort5write
FNDA:0,_RNvMs_NtNtNtCsffdOlLd9PUE_19rusty_commit_lister5ports14clipboard_port4fakeNtB4_13FakeClipboard12last_written
FNDA:0,_RNvMs_NtNtNtCsffdOlLd9PUE_19rusty_commit_lister5ports14clipboard_port4fakeNtB4_13FakeClipboard3new
FNDA:0,_RNvXNtNtNtCsffdOlLd9PUE_19rusty_commit_lister5ports14clipboard_port4fakeNtB2_13FakeClipboardNtNtCs6bbfkRe74Oh_4core7default7Default7default
FNDA:0,_RNvXs0_NtNtNtCsffdOlLd9PUE_19rusty_commit_lister5ports14clipboard_port4fakeNtB5_13FakeClipboardNtNtB9_11config_port5Probe5probe
FNDA:0,_RNvXs1_NtNtNtCsffdOlLd9PUE_19rusty_commit_lister5ports14clipboard_port4fakeNtB5_13FakeClipboardNtB7_13ClipboardPort5write
FNF:5
FNH:0
DA:39,0
DA:40,0
DA:41,0
DA:45,0
DA:46,0
DA:47,0
DA:48,0
DA:49,0
DA:51,0
DA:52,0
DA:53,0
DA:57,0
DA:58,0
DA:59,0
DA:63,0
DA:64,0
DA:65,0
DA:68,0
DA:69,0
DA:70,0
BRF:0
BRH:0
LF:20
LH:0
end_of_record
SF:/Users/franci/src/personal/rusty-commit-lister/src/tui/event_loop.rs
FN:102,_RNvXs_NtNtCsdnaWJaLY0Bt_19rusty_commit_lister3tui10event_loopNtB4_12TuiEventLoopNtNtNtCs6bbfkRe74Oh_4core3ops4drop4Drop4drop
FN:24,_RNvMNtNtCsdnaWJaLY0Bt_19rusty_commit_lister3tui10event_loopNtB2_12TuiEventLoop3new
FN:90,_RNvMNtNtCsdnaWJaLY0Bt_19rusty_commit_lister3tui10event_loopNtB2_12TuiEventLoop7restore
FN:108,_RNvNtNtCsdnaWJaLY0Bt_19rusty_commit_lister3tui10event_loop15translate_event
FN:49,_RINvMNtNtCsdnaWJaLY0Bt_19rusty_commit_lister3tui10event_loopNtB3_12TuiEventLoop3runNCNvCskTLto71KBzp_19rusty_commit_lister4mains1_0NCB1l_s2_0EB1n_
FN:58,_RNCINvMNtNtCsdnaWJaLY0Bt_19rusty_commit_lister3tui10event_loopNtB5_12TuiEventLoop3runNCNvCskTLto71KBzp_19rusty_commit_lister4mains1_0NCB1n_s2_0E0B1p_
FN:49,_RINvMNtNtCsffdOlLd9PUE_19rusty_commit_lister3tui10event_loopNtB3_12TuiEventLoop3runppEB7_
FN:58,_RNCINvMNtNtCsffdOlLd9PUE_19rusty_commit_lister3tui10event_loopNtB5_12TuiEventLoop3runppE0B9_
FN:24,_RNvMNtNtCsffdOlLd9PUE_19rusty_commit_lister3tui10event_loopNtB2_12TuiEventLoop3new
FN:90,_RNvMNtNtCsffdOlLd9PUE_19rusty_commit_lister3tui10event_loopNtB2_12TuiEventLoop7restore
FN:108,_RNvNtNtCsffdOlLd9PUE_19rusty_commit_lister3tui10event_loop15translate_event
FN:102,_RNvXs_NtNtCsffdOlLd9PUE_19rusty_commit_lister3tui10event_loopNtB4_12TuiEventLoopNtNtNtCs6bbfkRe74Oh_4core3ops4drop4Drop4drop
FNDA:0,_RNvXs_NtNtCsdnaWJaLY0Bt_19rusty_commit_lister3tui10event_loopNtB4_12TuiEventLoopNtNtNtCs6bbfkRe74Oh_4core3ops4drop4Drop4drop
FNDA:0,_RNvMNtNtCsdnaWJaLY0Bt_19rusty_commit_lister3tui10event_loopNtB2_12TuiEventLoop3new
FNDA:0,_RNvMNtNtCsdnaWJaLY0Bt_19rusty_commit_lister3tui10event_loopNtB2_12TuiEventLoop7restore
FNDA:0,_RNvNtNtCsdnaWJaLY0Bt_19rusty_commit_lister3tui10event_loop15translate_event
FNDA:0,_RINvMNtNtCsdnaWJaLY0Bt_19rusty_commit_lister3tui10event_loopNtB3_12TuiEventLoop3runNCNvCskTLto71KBzp_19rusty_commit_lister4mains1_0NCB1l_s2_0EB1n_
FNDA:0,_RNCINvMNtNtCsdnaWJaLY0Bt_19rusty_commit_lister3tui10event_loopNtB5_12TuiEventLoop3runNCNvCskTLto71KBzp_19rusty_commit_lister4mains1_0NCB1n_s2_0E0B1p_
FNDA:0,_RINvMNtNtCsffdOlLd9PUE_19rusty_commit_lister3tui10event_loopNtB3_12TuiEventLoop3runppEB7_
FNDA:0,_RNCINvMNtNtCsffdOlLd9PUE_19rusty_commit_lister3tui10event_loopNtB5_12TuiEventLoop3runppE0B9_
FNDA:0,_RNvMNtNtCsffdOlLd9PUE_19rusty_commit_lister3tui10event_loopNtB2_12TuiEventLoop3new
FNDA:0,_RNvMNtNtCsffdOlLd9PUE_19rusty_commit_lister3tui10event_loopNtB2_12TuiEventLoop7restore
FNDA:0,_RNvNtNtCsffdOlLd9PUE_19rusty_commit_lister3tui10event_loop15translate_event
FNDA:0,_RNvXs_NtNtCsffdOlLd9PUE_19rusty_commit_lister3tui10event_loopNtB4_12TuiEventLoopNtNtNtCs6bbfkRe74Oh_4core3ops4drop4Drop4drop
FNF:6
FNH:0
DA:24,0
DA:25,0
DA:26,0
DA:27,0
DA:28,0
DA:29,0
DA:30,0
DA:31,0
DA:32,0
DA:33,0
DA:49,0
DA:50,0
DA:51,0
DA:52,0
DA:53,0
DA:54,0
DA:55,0
DA:57,0
DA:58,0
DA:59,0
DA:60,0
DA:61,0
DA:62,0
DA:63,0
DA:64,0
DA:65,0
DA:66,0
DA:67,0
DA:68,0
DA:69,0
DA:70,0
DA:71,0
DA:72,0
DA:73,0
DA:74,0
DA:75,0
DA:76,0
DA:77,0
DA:78,0
DA:79,0
DA:80,0
DA:81,0
DA:82,0
DA:84,0
DA:85,0
DA:90,0
DA:91,0
DA:92,0
DA:93,0
DA:94,0
DA:95,0
DA:96,0
DA:97,0
DA:102,0
DA:103,0
DA:104,0
DA:108,0
DA:109,0
DA:110,0
DA:111,0
DA:113,0
BRF:0
BRH:0
LF:62
LH:0
end_of_record
SF:/Users/franci/src/personal/rusty-commit-lister/src/tui/view.rs
FN:101,_RNvNtNtCsdnaWJaLY0Bt_19rusty_commit_lister3tui4view12detail_lines
FN:155,_RNvNtNtCsdnaWJaLY0Bt_19rusty_commit_lister3tui4view16render_main_area
FN:227,_RNvNtNtCsdnaWJaLY0Bt_19rusty_commit_lister3tui4view17render_search_bar
FN:232,_RNvNtNtCsdnaWJaLY0Bt_19rusty_commit_lister3tui4view17render_status_bar
FN:36,_RNvNtNtCsdnaWJaLY0Bt_19rusty_commit_lister3tui4view18format_status_text
FN:135,_RNvNtNtCsdnaWJaLY0Bt_19rusty_commit_lister3tui4view18render_repo_picker
FN:49,_RNvNtNtCsdnaWJaLY0Bt_19rusty_commit_lister3tui4view18search_status_text
FN:184,_RNvNtNtCsdnaWJaLY0Bt_19rusty_commit_lister3tui4view19render_commit_table
FN:111,_RNvNtNtCsdnaWJaLY0Bt_19rusty_commit_lister3tui4view21render_detail_overlay
FN:61,_RNvNtNtCsdnaWJaLY0Bt_19rusty_commit_lister3tui4view4view
FN:17,_RNvNtNtCsdnaWJaLY0Bt_19rusty_commit_lister3tui4view8truncate
FN:140,_RNCNvNtNtCsdnaWJaLY0Bt_19rusty_commit_lister3tui4view18render_repo_picker0B7_
FN:195,_RNCNvNtNtCsdnaWJaLY0Bt_19rusty_commit_lister3tui4view19render_commit_table0B7_
FN:140,_RNCNvNtNtCsffdOlLd9PUE_19rusty_commit_lister3tui4view18render_repo_picker0B7_
FN:195,_RNCNvNtNtCsffdOlLd9PUE_19rusty_commit_lister3tui4view19render_commit_table0B7_
FN:101,_RNvNtNtCsffdOlLd9PUE_19rusty_commit_lister3tui4view12detail_lines
FN:155,_RNvNtNtCsffdOlLd9PUE_19rusty_commit_lister3tui4view16render_main_area
FN:227,_RNvNtNtCsffdOlLd9PUE_19rusty_commit_lister3tui4view17render_search_bar
FN:232,_RNvNtNtCsffdOlLd9PUE_19rusty_commit_lister3tui4view17render_status_bar
FN:135,_RNvNtNtCsffdOlLd9PUE_19rusty_commit_lister3tui4view18render_repo_picker
FN:184,_RNvNtNtCsffdOlLd9PUE_19rusty_commit_lister3tui4view19render_commit_table
FN:111,_RNvNtNtCsffdOlLd9PUE_19rusty_commit_lister3tui4view21render_detail_overlay
FN:61,_RNvNtNtCsffdOlLd9PUE_19rusty_commit_lister3tui4view4view
FN:288,_RNvNtNtNtCsffdOlLd9PUE_19rusty_commit_lister3tui4view5testss_35truncate_empty_string_returns_empty
FN:262,_RNvNtNtNtCsffdOlLd9PUE_19rusty_commit_lister3tui4view5testss_39truncate_returns_short_string_unchanged
FN:317,_RNvNtNtNtCsffdOlLd9PUE_19rusty_commit_lister3tui4view5testss_41status_text_shows_one_based_row_and_total
FN:334,_RNvNtNtNtCsffdOlLd9PUE_19rusty_commit_lister3tui4view5testss_43search_status_text_shows_zero_when_no_match
FN:308,_RNvNtNtNtCsffdOlLd9PUE_19rusty_commit_lister3tui4view5testss_44status_text_is_row_zero_of_zero_when_no_rows
FN:270,_RNvNtNtNtCsffdOlLd9PUE_19rusty_commit_lister3tui4view5testss_46truncate_returns_string_equal_to_max_unchanged
FN:326,_RNvNtNtNtCsffdOlLd9PUE_19rusty_commit_lister3tui4view5testss_48search_status_text_shows_filtered_count_of_total
FN:342,_RNvNtNtNtCsffdOlLd9PUE_19rusty_commit_lister3tui4view5testss_50search_status_text_shows_full_count_when_all_match
FN:278,_RNvNtNtNtCsffdOlLd9PUE_19rusty_commit_lister3tui4view5testss_52truncate_adds_ellipsis_when_string_exceeds_max_chars
FN:296,_RNvNtNtNtCsffdOlLd9PUE_19rusty_commit_lister3tui4view5testss_64truncate_with_max_equal_to_ellipsis_length_returns_only_ellipsis
FN:36,_RNvNtNtCsffdOlLd9PUE_19rusty_commit_lister3tui4view18format_status_text
FN:49,_RNvNtNtCsffdOlLd9PUE_19rusty_commit_lister3tui4view18search_status_text
FN:17,_RNvNtNtCsffdOlLd9PUE_19rusty_commit_lister3tui4view8truncate
FNDA:7,_RNvNtNtCsdnaWJaLY0Bt_19rusty_commit_lister3tui4view12detail_lines
FNDA:14,_RNvNtNtCsdnaWJaLY0Bt_19rusty_commit_lister3tui4view16render_main_area
FNDA:2,_RNvNtNtCsdnaWJaLY0Bt_19rusty_commit_lister3tui4view17render_search_bar
FNDA:14,_RNvNtNtCsdnaWJaLY0Bt_19rusty_commit_lister3tui4view17render_status_bar
FNDA:2,_RNvNtNtCsdnaWJaLY0Bt_19rusty_commit_lister3tui4view18format_status_text
FNDA:4,_RNvNtNtCsdnaWJaLY0Bt_19rusty_commit_lister3tui4view18render_repo_picker
FNDA:2,_RNvNtNtCsdnaWJaLY0Bt_19rusty_commit_lister3tui4view18search_status_text
FNDA:5,_RNvNtNtCsdnaWJaLY0Bt_19rusty_commit_lister3tui4view19render_commit_table
FNDA:5,_RNvNtNtCsdnaWJaLY0Bt_19rusty_commit_lister3tui4view21render_detail_overlay
FNDA:14,_RNvNtNtCsdnaWJaLY0Bt_19rusty_commit_lister3tui4view4view
FNDA:12,_RNvNtNtCsdnaWJaLY0Bt_19rusty_commit_lister3tui4view8truncate
FNDA:8,_RNCNvNtNtCsdnaWJaLY0Bt_19rusty_commit_lister3tui4view18render_repo_picker0B7_
FNDA:6,_RNCNvNtNtCsdnaWJaLY0Bt_19rusty_commit_lister3tui4view19render_commit_table0B7_
FNDA:0,_RNCNvNtNtCsffdOlLd9PUE_19rusty_commit_lister3tui4view18render_repo_picker0B7_
FNDA:0,_RNCNvNtNtCsffdOlLd9PUE_19rusty_commit_lister3tui4view19render_commit_table0B7_
FNDA:0,_RNvNtNtCsffdOlLd9PUE_19rusty_commit_lister3tui4view12detail_lines
FNDA:0,_RNvNtNtCsffdOlLd9PUE_19rusty_commit_lister3tui4view16render_main_area
FNDA:0,_RNvNtNtCsffdOlLd9PUE_19rusty_commit_lister3tui4view17render_search_bar
FNDA:0,_RNvNtNtCsffdOlLd9PUE_19rusty_commit_lister3tui4view17render_status_bar
FNDA:0,_RNvNtNtCsffdOlLd9PUE_19rusty_commit_lister3tui4view18render_repo_picker
FNDA:0,_RNvNtNtCsffdOlLd9PUE_19rusty_commit_lister3tui4view19render_commit_table
FNDA:0,_RNvNtNtCsffdOlLd9PUE_19rusty_commit_lister3tui4view21render_detail_overlay
FNDA:0,_RNvNtNtCsffdOlLd9PUE_19rusty_commit_lister3tui4view4view
FNDA:1,_RNvNtNtNtCsffdOlLd9PUE_19rusty_commit_lister3tui4view5testss_35truncate_empty_string_returns_empty
FNDA:1,_RNvNtNtNtCsffdOlLd9PUE_19rusty_commit_lister3tui4view5testss_39truncate_returns_short_string_unchanged
FNDA:1,_RNvNtNtNtCsffdOlLd9PUE_19rusty_commit_lister3tui4view5testss_41status_text_shows_one_based_row_and_total
FNDA:1,_RNvNtNtNtCsffdOlLd9PUE_19rusty_commit_lister3tui4view5testss_43search_status_text_shows_zero_when_no_match
FNDA:1,_RNvNtNtNtCsffdOlLd9PUE_19rusty_commit_lister3tui4view5testss_44status_text_is_row_zero_of_zero_when_no_rows
FNDA:1,_RNvNtNtNtCsffdOlLd9PUE_19rusty_commit_lister3tui4view5testss_46truncate_returns_string_equal_to_max_unchanged
FNDA:1,_RNvNtNtNtCsffdOlLd9PUE_19rusty_commit_lister3tui4view5testss_48search_status_text_shows_filtered_count_of_total
FNDA:1,_RNvNtNtNtCsffdOlLd9PUE_19rusty_commit_lister3tui4view5testss_50search_status_text_shows_full_count_when_all_match
FNDA:1,_RNvNtNtNtCsffdOlLd9PUE_19rusty_commit_lister3tui4view5testss_52truncate_adds_ellipsis_when_string_exceeds_max_chars
FNDA:1,_RNvNtNtNtCsffdOlLd9PUE_19rusty_commit_lister3tui4view5testss_64truncate_with_max_equal_to_ellipsis_length_returns_only_ellipsis
FNDA:2,_RNvNtNtCsffdOlLd9PUE_19rusty_commit_lister3tui4view18format_status_text
FNDA:3,_RNvNtNtCsffdOlLd9PUE_19rusty_commit_lister3tui4view18search_status_text
FNDA:5,_RNvNtNtCsffdOlLd9PUE_19rusty_commit_lister3tui4view8truncate
FNF:23
FNH:23
DA:17,17
DA:18,17
DA:19,17
DA:20,7
DA:21,10
DA:22,10
DA:23,10
DA:24,10
DA:25,10
DA:26,10
DA:27,10
DA:28,17
DA:36,4
DA:37,4
DA:38,1
DA:40,3
DA:42,4
DA:49,5
DA:50,5
DA:51,5
DA:61,14
DA:62,14
DA:63,2
DA:64,2
DA:65,2
DA:66,2
DA:67,2
DA:68,2
DA:69,2
DA:70,2
DA:71,2
DA:72,2
DA:73,2
DA:74,2
DA:75,2
DA:76,2
DA:77,2
DA:78,2
DA:79,12
DA:80,12
DA:81,12
DA:82,12
DA:83,12
DA:84,12
DA:85,12
DA:86,12
DA:87,12
DA:88,12
DA:89,14
DA:101,7
DA:102,7
DA:103,7
DA:104,7
DA:105,7
DA:106,7
DA:107,7
DA:109,7
DA:111,5
DA:114,5
DA:115,5
DA:116,5
DA:117,5
DA:118,5
DA:119,5
DA:120,1
DA:121,1
DA:122,4
DA:123,5
DA:124,5
DA:125,5
DA:126,5
DA:135,4
DA:136,4
DA:137,4
DA:138,4
DA:139,4
DA:140,8
DA:141,8
DA:142,8
DA:143,4
DA:145,4
DA:147,8
DA:148,8
DA:149,4
DA:150,4
DA:151,4
DA:152,4
DA:153,4
DA:155,14
DA:156,14
DA:157,0
DA:158,0
DA:159,14
DA:161,14
DA:162,0
DA:163,0
DA:164,14
DA:166,14
DA:167,0
DA:168,0
DA:169,14
DA:171,14
DA:172,5
DA:173,5
DA:174,9
DA:176,9
DA:177,4
DA:178,4
DA:179,5
DA:181,5
DA:182,14
DA:184,5
DA:185,5
DA:186,5
DA:187,5
DA:188,5
DA:189,5
DA:192,5
DA:193,5
DA:194,5
DA:195,6
DA:196,6
DA:197,6
DA:198,6
DA:199,6
DA:200,6
DA:202,6
DA:203,5
DA:205,5
DA:206,5
DA:207,5
DA:208,5
DA:209,5
DA:210,5
DA:212,5
DA:213,5
DA:214,5
DA:215,5
DA:218,5
DA:220,5
DA:221,5
DA:227,2
DA:228,2
DA:229,2
DA:230,2
DA:232,14
DA:233,14
DA:234,2
DA:235,5
DA:236,4
DA:238,3
DA:239,1
DA:241,1
DA:242,1
DA:245,2
DA:246,2
DA:247,2
DA:251,14
DA:252,14
DA:262,1
DA:263,1
DA:264,1
DA:270,1
DA:271,1
DA:272,1
DA:278,1
DA:279,1
DA:280,1
DA:281,1
DA:282,1
DA:288,1
DA:289,1
DA:290,1
DA:296,1
DA:297,1
DA:298,1
DA:299,1
DA:300,1
DA:308,1
DA:309,1
DA:310,1
DA:311,1
DA:317,1
DA:318,1
DA:319,1
DA:320,1
DA:326,1
DA:327,1
DA:328,1
DA:334,1
DA:335,1
DA:336,1
DA:342,1
DA:343,1
DA:344,1
BRF:0
BRH:0
LF:197
LH:191
end_of_record
